target datalayout = "e-m:e-p270:32:32-p271:32:32-p272:64:64-i64:64-i128:128-f80:128-n8:16:32:64-S128"
target triple = "x86_64-pc-linux-gnu"

%struct.SDL_Process = type { i8, i8, i32, i32, ptr }
%struct.SDL_ProcessData = type { i32 }

@.str.27 = private unnamed_addr constant [24 x i8] c"Could not waitpid(): %s\00", align 1

; Function Attrs: nounwind uwtable
define hidden zeroext i1 @SDL_SYS_WaitProcess(ptr noundef %0, i1 noundef zeroext %1, ptr noundef %2) #0 {
  %4 = alloca i1, align 1
  %5 = alloca ptr, align 8
  %6 = alloca i8, align 1
  %7 = alloca ptr, align 8
  %8 = alloca i32, align 4
  %9 = alloca i32, align 4
  %10 = alloca i32, align 4
  %11 = alloca i32, align 4
  store ptr %0, ptr %5, align 8
  %12 = zext i1 %1 to i8
  store i8 %12, ptr %6, align 1
  store ptr %2, ptr %7, align 8
  call void @llvm.lifetime.start.p0(i64 4, ptr %8) #9
  store i32 0, ptr %8, align 4
  call void @llvm.lifetime.start.p0(i64 4, ptr %9) #9
  call void @llvm.lifetime.start.p0(i64 4, ptr %10) #9
  %13 = load ptr, ptr %5, align 8
  %14 = getelementptr inbounds nuw %struct.SDL_Process, ptr %13, i32 0, i32 4
  %15 = load ptr, ptr %14, align 8
  %16 = getelementptr inbounds nuw %struct.SDL_ProcessData, ptr %15, i32 0, i32 0
  %17 = load i32, ptr %16, align 4
  store i32 %17, ptr %10, align 4
  %18 = load ptr, ptr %5, align 8
  %19 = getelementptr inbounds nuw %struct.SDL_Process, ptr %18, i32 0, i32 1
  %20 = load i8, ptr %19, align 1, !range !3, !noundef !4
  %21 = trunc i8 %20 to i1
  br i1 %21, label %22, label %40

22:                                               ; preds = %3
  %23 = load i8, ptr %6, align 1, !range !3, !noundef !4
  %24 = trunc i8 %23 to i1
  br i1 %24, label %25, label %32

25:                                               ; preds = %22
  br label %26

26:                                               ; preds = %30, %25
  %27 = load i32, ptr %10, align 4
  %28 = call i32 @kill(i32 noundef %27, i32 noundef 0) #9
  %29 = icmp eq i32 %28, 0
  br i1 %29, label %30, label %31

30:                                               ; preds = %26
  call void @SDL_Delay_REAL(i32 noundef 10)
  br label %26, !llvm.loop !8

31:                                               ; preds = %26
  br label %38

32:                                               ; preds = %22
  %33 = load i32, ptr %10, align 4
  %34 = call i32 @kill(i32 noundef %33, i32 noundef 0) #9
  %35 = icmp eq i32 %34, 0
  br i1 %35, label %36, label %37

36:                                               ; preds = %32
  store i1 false, ptr %4, align 1
  store i32 1, ptr %11, align 4
  br label %84

37:                                               ; preds = %32
  br label %38

38:                                               ; preds = %37, %31
  %39 = load ptr, ptr %7, align 8
  store i32 0, ptr %39, align 4
  store i1 true, ptr %4, align 1
  store i32 1, ptr %11, align 4
  br label %84

40:                                               ; preds = %3
  %41 = load i32, ptr %10, align 4
  %42 = load i8, ptr %6, align 1, !range !3, !noundef !4
  %43 = trunc i8 %42 to i1
  %44 = select i1 %43, i32 0, i32 1
  %45 = call i32 @waitpid(i32 noundef %41, ptr noundef %8, i32 noundef %44)
  store i32 %45, ptr %9, align 4
  %46 = load i32, ptr %9, align 4
  %47 = icmp slt i32 %46, 0
  br i1 %47, label %48, label %53

48:                                               ; preds = %40
  %49 = call ptr @__errno_location() #11
  %50 = load i32, ptr %49, align 4
  %51 = call ptr @strerror(i32 noundef %50) #9
  %52 = call zeroext i1 (ptr, ...) @SDL_SetError_REAL(ptr noundef @.str.27, ptr noundef %51)
  store i1 %52, ptr %4, align 1
  store i32 1, ptr %11, align 4
  br label %84

53:                                               ; preds = %40
  %54 = load i32, ptr %9, align 4
  %55 = icmp eq i32 %54, 0
  br i1 %55, label %56, label %58

56:                                               ; preds = %53
  %57 = call zeroext i1 @SDL_ClearError_REAL()
  store i1 false, ptr %4, align 1
  store i32 1, ptr %11, align 4
  br label %84

58:                                               ; preds = %53
  %59 = load i32, ptr %8, align 4
  %60 = and i32 %59, 127
  %61 = icmp eq i32 %60, 0
  br i1 %61, label %62, label %67

62:                                               ; preds = %58
  %63 = load i32, ptr %8, align 4
  %64 = and i32 %63, 65280
  %65 = ashr i32 %64, 8
  %66 = load ptr, ptr %7, align 8
  store i32 %65, ptr %66, align 4
  br label %83

67:                                               ; preds = %58
  %68 = load i32, ptr %8, align 4
  %69 = and i32 %68, 127
  %70 = add nsw i32 %69, 1
  %71 = trunc i32 %70 to i8
  %72 = sext i8 %71 to i32
  %73 = ashr i32 %72, 1
  %74 = icmp sgt i32 %73, 0
  br i1 %74, label %75, label %80

75:                                               ; preds = %67
  %76 = load i32, ptr %8, align 4
  %77 = and i32 %76, 127
  %78 = sub nsw i32 0, %77
  %79 = load ptr, ptr %7, align 8
  store i32 %78, ptr %79, align 4
  br label %82

80:                                               ; preds = %67
  %81 = load ptr, ptr %7, align 8
  store i32 -255, ptr %81, align 4
  br label %82

82:                                               ; preds = %80, %75
  br label %83

83:                                               ; preds = %82, %62
  store i1 true, ptr %4, align 1
  store i32 1, ptr %11, align 4
  br label %84

84:                                               ; preds = %83, %56, %48, %38, %36
  call void @llvm.lifetime.end.p0(i64 4, ptr %10) #9
  call void @llvm.lifetime.end.p0(i64 4, ptr %9) #9
  call void @llvm.lifetime.end.p0(i64 4, ptr %8) #9
  %85 = load i1, ptr %4, align 1
  ret i1 %85
}