; Function Attrs: nounwind uwtable
define hidden zeroext i1 @SDL_SYS_WaitProcess(ptr noundef readonly captures(none) %0, i1 noundef zeroext %1, ptr noundef writeonly captures(none) %2) local_unnamed_addr #0 {
  %4 = alloca i32, align 4
  call void @llvm.lifetime.start.p0(i64 4, ptr nonnull %4) #10
  store i32 0, ptr %4, align 4
  %5 = getelementptr inbounds nuw i8, ptr %0, i64 16
  %6 = load ptr, ptr %5, align 8
  %7 = load i32, ptr %6, align 4
  %8 = getelementptr inbounds nuw i8, ptr %0, i64 1
  %9 = load i8, ptr %8, align 1, !range !3, !noundef !4
  %10 = trunc nuw i8 %9 to i1
  br i1 %10, label %11, label %17

11:                                               ; preds = %3
  %12 = tail call i32 @kill(i32 noundef %7, i32 noundef 0) #10
  %13 = icmp eq i32 %12, 0
  br i1 %1, label %.preheader, label %16

.preheader:                                       ; preds = %11
  br i1 %13, label %.lr.ph, label %.loopexit

.lr.ph:                                           ; preds = %.preheader, %.lr.ph
  tail call void @SDL_Delay_REAL(i32 noundef 10) #10
  %14 = tail call i32 @kill(i32 noundef %7, i32 noundef 0) #10
  %15 = icmp eq i32 %14, 0
  br i1 %15, label %.lr.ph, label %.loopexit, !llvm.loop !8

16:                                               ; preds = %11
  br i1 %13, label %43, label %.loopexit

.loopexit:                                        ; preds = %.lr.ph, %.preheader, %16
  store i32 0, ptr %2, align 4
  br label %43

17:                                               ; preds = %3
  %not. = xor i1 %1, true
  %18 = zext i1 %not. to i32
  %19 = call i32 @waitpid(i32 noundef %7, ptr noundef nonnull %4, i32 noundef %18) #10
  %20 = icmp slt i32 %19, 0
  br i1 %20, label %21, label %26

21:                                               ; preds = %17
  %22 = tail call ptr @__errno_location() #12
  %23 = load i32, ptr %22, align 4
  %24 = call ptr @strerror(i32 noundef %23) #10
  %25 = call zeroext i1 (ptr, ...) @SDL_SetError_REAL(ptr noundef nonnull @.str.27, ptr noundef %24) #10
  br label %43

26:                                               ; preds = %17
  %27 = icmp eq i32 %19, 0
  br i1 %27, label %28, label %30

28:                                               ; preds = %26
  %29 = call zeroext i1 @SDL_ClearError_REAL() #10
  br label %43

30:                                               ; preds = %26
  %31 = load i32, ptr %4, align 4
  %32 = and i32 %31, 127
  %33 = icmp eq i32 %32, 0
  br i1 %33, label %34, label %37

34:                                               ; preds = %30
  %35 = lshr i32 %31, 8
  %36 = and i32 %35, 255
  store i32 %36, ptr %2, align 4
  br label %43

37:                                               ; preds = %30
  %38 = shl nuw nsw i32 %32, 24
  %sext = add nuw i32 %38, 16777216
  %39 = icmp sgt i32 %sext, 33554431
  br i1 %39, label %40, label %42

40:                                               ; preds = %37
  %41 = sub nsw i32 0, %32
  store i32 %41, ptr %2, align 4
  br label %43

42:                                               ; preds = %37
  store i32 -255, ptr %2, align 4
  br label %43

43:                                               ; preds = %34, %42, %40, %16, %28, %21, %.loopexit
  %.0 = phi i1 [ true, %.loopexit ], [ %25, %21 ], [ false, %28 ], [ false, %16 ], [ true, %40 ], [ true, %42 ], [ true, %34 ]
  call void @llvm.lifetime.end.p0(i64 4, ptr nonnull %4) #10
  ret i1 %.0
}